target datalayout = "e-m:e-p270:32:32-p271:32:32-p272:64:64-i64:64-i128:128-f80:128-n8:16:32:64-S128"
target triple = "x86_64-pc-linux-gnu"

%struct.client = type { i64, i64, ptr, i8, i8, i8, i8, i32, ptr, ptr, ptr, ptr, ptr, i64, i64, i32, ptr, i32, i32, ptr, i64, ptr, ptr, ptr, ptr, ptr, i32, i32, i64, ptr, i64, ptr, i64, i64, i64, i32, ptr, i64, i64, i32, i32, i32, i32, i64, i64, ptr, i64, i64, i64, i64, i64, i64, i64, i64, [41 x i8], i32, ptr, i32, i32, i64, %struct.multiState, %struct.blockingState, i64, ptr, ptr, ptr, ptr, ptr, ptr, ptr, ptr, ptr, ptr, ptr, ptr, ptr, ptr, i64, ptr, i64, i32, ptr, ptr, ptr, i64, %struct.listNode, i64, i64, i32, i64, ptr }
%struct.multiState = type { ptr, i32, i32, i32, i64, i32 }
%struct.blockingState = type { i32, i64, i32, ptr, i32, i32, i64, ptr, ptr, i64 }
%struct.listNode = type { ptr, ptr, ptr }

@.str.1 = private unnamed_addr constant [24 x i8] c"!(flags & LOOKUP_WRITE)\00", align 1
@.str.2 = private unnamed_addr constant [5 x i8] c"db.c\00", align 1

; Function Attrs: nounwind uwtable
define dso_local ptr @lookupKeyReadWithFlags(ptr noundef %0, ptr noundef %1, i32 noundef %2) #0 {
  %4 = alloca ptr, align 8
  %5 = alloca ptr, align 8
  %6 = alloca i32, align 4
  store ptr %0, ptr %4, align 8, !tbaa !12
  store ptr %1, ptr %5, align 8, !tbaa !5
  store i32 %2, ptr %6, align 4, !tbaa !14
  %7 = load i32, ptr %6, align 4, !tbaa !14
  %8 = and i32 %7, 8
  %9 = icmp ne i32 %8, 0
  %10 = xor i1 %9, true
  %11 = xor i1 %10, true
  %12 = xor i1 %11, true
  %13 = zext i1 %12 to i32
  %14 = sext i32 %13 to i64
  %15 = call i64 @llvm.expect.i64(i64 %14, i64 1)
  %16 = icmp ne i64 %15, 0
  br i1 %16, label %17, label %18

17:                                               ; preds = %3
  br label %20

18:                                               ; preds = %3
  call void @_serverAssert(ptr noundef @.str.1, ptr noundef @.str.2, i32 noundef 190)
  call void @abort() #16
  unreachable

19:                                               ; No predecessors!
  br label %20

20:                                               ; preds = %19, %17
  %21 = load ptr, ptr %4, align 8, !tbaa !12
  %22 = load ptr, ptr %5, align 8, !tbaa !5
  %23 = load i32, ptr %6, align 4, !tbaa !14
  %24 = call ptr @lookupKey(ptr noundef %21, ptr noundef %22, i32 noundef %23, ptr noundef null)
  ret ptr %24
}

; Function Attrs: nounwind uwtable
define dso_local void @existsCommand(ptr noundef %0) #0 {
  %2 = alloca ptr, align 8
  %3 = alloca i64, align 8
  %4 = alloca i32, align 4
  store ptr %0, ptr %2, align 8, !tbaa !76
  call void @llvm.lifetime.start.p0(i64 8, ptr %3) #15
  store i64 0, ptr %3, align 8, !tbaa !90
  call void @llvm.lifetime.start.p0(i64 4, ptr %4) #15
  store i32 1, ptr %4, align 4, !tbaa !14
  br label %5

5:                                                ; preds = %28, %1
  %6 = load i32, ptr %4, align 4, !tbaa !14
  %7 = load ptr, ptr %2, align 8, !tbaa !76
  %8 = getelementptr inbounds nuw %struct.client, ptr %7, i32 0, i32 15
  %9 = load i32, ptr %8, align 8, !tbaa !111
  %10 = icmp slt i32 %6, %9
  br i1 %10, label %11, label %31

11:                                               ; preds = %5
  %12 = load ptr, ptr %2, align 8, !tbaa !76
  %13 = getelementptr inbounds nuw %struct.client, ptr %12, i32 0, i32 8
  %14 = load ptr, ptr %13, align 8, !tbaa !77
  %15 = load ptr, ptr %2, align 8, !tbaa !76
  %16 = getelementptr inbounds nuw %struct.client, ptr %15, i32 0, i32 16
  %17 = load ptr, ptr %16, align 8, !tbaa !112
  %18 = load i32, ptr %4, align 4, !tbaa !14
  %19 = sext i32 %18 to i64
  %20 = getelementptr inbounds ptr, ptr %17, i64 %19
  %21 = load ptr, ptr %20, align 8, !tbaa !5
  %22 = call ptr @lookupKeyReadWithFlags(ptr noundef %14, ptr noundef %21, i32 noundef 1)
  %23 = icmp ne ptr %22, null
  br i1 %23, label %24, label %27

24:                                               ; preds = %11
  %25 = load i64, ptr %3, align 8, !tbaa !90
  %26 = add nsw i64 %25, 1
  store i64 %26, ptr %3, align 8, !tbaa !90
  br label %27

27:                                               ; preds = %24, %11
  br label %28

28:                                               ; preds = %27
  %29 = load i32, ptr %4, align 4, !tbaa !14
  %30 = add nsw i32 %29, 1
  store i32 %30, ptr %4, align 4, !tbaa !14
  br label %5, !llvm.loop !132

31:                                               ; preds = %5
  %32 = load ptr, ptr %2, align 8, !tbaa !76
  %33 = load i64, ptr %3, align 8, !tbaa !90
  call void @addReplyLongLong(ptr noundef %32, i64 noundef %33)
  call void @llvm.lifetime.end.p0(i64 4, ptr %4) #15
  call void @llvm.lifetime.end.p0(i64 8, ptr %3) #15
  ret void
}