; Function Attrs: nounwind uwtable
define dso_local void @existsCommand(ptr noundef %0) local_unnamed_addr #0 {
  %2 = getelementptr inbounds nuw i8, ptr %0, i64 88
  %3 = load i32, ptr %2, align 8, !tbaa !103
  %4 = icmp sgt i32 %3, 1
  br i1 %4, label %.lr.ph, label %._crit_edge

.lr.ph:                                           ; preds = %1
  %5 = getelementptr inbounds nuw i8, ptr %0, i64 32
  %6 = getelementptr inbounds nuw i8, ptr %0, i64 96
  br label %7

7:                                                ; preds = %.lr.ph, %7
  %indvars.iv = phi i64 [ 1, %.lr.ph ], [ %indvars.iv.next, %7 ]
  %.089 = phi i64 [ 0, %.lr.ph ], [ %spec.select, %7 ]
  %8 = load ptr, ptr %5, align 8, !tbaa !74
  %9 = load ptr, ptr %6, align 8, !tbaa !104
  %10 = getelementptr inbounds nuw ptr, ptr %9, i64 %indvars.iv
  %11 = load ptr, ptr %10, align 8, !tbaa !105
  %12 = tail call ptr @lookupKey(ptr noundef %8, ptr noundef %11, i32 noundef 1, ptr noundef null)
  %.not = icmp ne ptr %12, null
  %13 = zext i1 %.not to i64
  %spec.select = add nuw nsw i64 %.089, %13
  %indvars.iv.next = add nuw nsw i64 %indvars.iv, 1
  %14 = load i32, ptr %2, align 8, !tbaa !103
  %15 = sext i32 %14 to i64
  %16 = icmp slt i64 %indvars.iv.next, %15
  br i1 %16, label %7, label %._crit_edge, !llvm.loop !120

._crit_edge:                                      ; preds = %7, %1
  %.08.lcssa = phi i64 [ 0, %1 ], [ %spec.select, %7 ]
  tail call void @addReplyLongLong(ptr noundef nonnull %0, i64 noundef %.08.lcssa) #20
  ret void
}